; Function Attrs: nounwind uwtable
define void @jpeg_CreateDecompress(ptr noundef initializes((8, 16)) %0, i32 noundef %1, i64 noundef %2) local_unnamed_addr #0 {
  %4 = getelementptr inbounds nuw i8, ptr %0, i64 8
  store ptr null, ptr %4, align 8, !tbaa !3
  %.not = icmp eq i32 %1, 62
  br i1 %.not, label %13, label %5

5:                                                ; preds = %3
  %6 = load ptr, ptr %0, align 8, !tbaa !30
  %7 = getelementptr inbounds nuw i8, ptr %6, i64 40
  store i32 12, ptr %7, align 8, !tbaa !31
  %8 = getelementptr inbounds nuw i8, ptr %6, i64 44
  store i32 62, ptr %8, align 4, !tbaa !34
  %9 = load ptr, ptr %0, align 8, !tbaa !30
  %10 = getelementptr inbounds nuw i8, ptr %9, i64 48
  store i32 %1, ptr %10, align 4, !tbaa !34
  %11 = load ptr, ptr %0, align 8, !tbaa !30
  %12 = load ptr, ptr %11, align 8, !tbaa !35
  tail call void %12(ptr noundef nonnull %0) #3
  br label %13

13:                                               ; preds = %5, %3
  %.not46 = icmp eq i64 %2, 632
  br i1 %.not46, label %.preheader, label %14

14:                                               ; preds = %13
  %15 = load ptr, ptr %0, align 8, !tbaa !30
  %16 = getelementptr inbounds nuw i8, ptr %15, i64 40
  store i32 21, ptr %16, align 8, !tbaa !31
  %17 = getelementptr inbounds nuw i8, ptr %15, i64 44
  store i32 632, ptr %17, align 4, !tbaa !34
  %18 = trunc i64 %2 to i32
  %19 = load ptr, ptr %0, align 8, !tbaa !30
  %20 = getelementptr inbounds nuw i8, ptr %19, i64 48
  store i32 %18, ptr %20, align 4, !tbaa !34
  %21 = load ptr, ptr %0, align 8, !tbaa !30
  %22 = load ptr, ptr %21, align 8, !tbaa !35
  tail call void %22(ptr noundef nonnull %0) #3
  br label %.preheader

.preheader:                                       ; preds = %14, %13
  %23 = load ptr, ptr %0, align 8, !tbaa !30
  %24 = getelementptr inbounds nuw i8, ptr %0, i64 24
  %25 = load ptr, ptr %24, align 8, !tbaa !36
  %26 = getelementptr inbounds nuw i8, ptr %0, i64 8
  tail call void @llvm.memset.p0.i64(ptr noundef nonnull align 8 dereferenceable(632) %26, i8 0, i64 624, i1 false)
  store ptr %23, ptr %0, align 8, !tbaa !30
  store ptr %25, ptr %24, align 8, !tbaa !36
  %27 = getelementptr inbounds nuw i8, ptr %0, i64 32
  store i32 1, ptr %27, align 8, !tbaa !37
  tail call void @jinit_memory_mgr(ptr noundef nonnull %0) #3
  %28 = getelementptr inbounds nuw i8, ptr %0, i64 16
  store ptr null, ptr %28, align 8, !tbaa !38
  %29 = getelementptr inbounds nuw i8, ptr %0, i64 40
  store ptr null, ptr %29, align 8, !tbaa !39
  %30 = getelementptr inbounds nuw i8, ptr %0, i64 200
  %31 = getelementptr inbounds nuw i8, ptr %0, i64 400
  store ptr null, ptr %31, align 8, !tbaa !40
  tail call void @llvm.memset.p0.i64(ptr noundef nonnull align 8 dereferenceable(96) %30, i8 0, i64 96, i1 false)
  tail call void @jinit_marker_reader(ptr noundef nonnull %0) #3
  tail call void @jinit_input_controller(ptr noundef nonnull %0) #3
  %32 = getelementptr inbounds nuw i8, ptr %0, i64 296
  store i32 8, ptr %32, align 8, !tbaa !41
  %33 = getelementptr inbounds nuw i8, ptr %0, i64 36
  store i32 200, ptr %33, align 4, !tbaa !42
  %34 = load ptr, ptr %4, align 8, !tbaa !3
  %35 = load ptr, ptr %34, align 8, !tbaa !43
  %36 = tail call ptr %35(ptr noundef nonnull %0, i32 noundef 0, i64 noundef 152) #3
  %37 = getelementptr inbounds nuw i8, ptr %0, i64 544
  store ptr %36, ptr %37, align 8, !tbaa !45
  tail call void @llvm.memset.p0.i64(ptr noundef nonnull align 8 dereferenceable(152) %36, i8 0, i64 152, i1 false)
  ret void
}